target datalayout = "e-m:e-p270:32:32-p271:32:32-p272:64:64-i64:64-i128:128-f80:128-n8:16:32:64-S128"
target triple = "x86_64-pc-linux-gnu"

%struct.AVFormatContext = type { ptr, ptr, ptr, ptr, ptr, i32, i32, ptr, i32, ptr, i32, ptr, ptr, i64, i64, i64, i32, i32, i32, i64, i64, ptr, i32, i32, ptr, i32, i32, i32, i32, ptr, i64, i32, i32, %struct.AVIOInterruptCB, i32, i32, i32, i32, i64, i32, i32, i32, i32, i32, i32, i32, i32, i32, i32, i32, i32, i64, i32, i32, i32, i32, i32, ptr, ptr, ptr, ptr, i32, ptr, ptr, ptr, ptr, i32, ptr, ptr, i64, ptr, ptr, ptr, i64 }
%struct.AVIOInterruptCB = type { ptr, ptr }
%struct.OutputStream = type { ptr, ptr, ptr, ptr, i64, i64, i64, i32, ptr, i32, i32, i32, ptr, ptr, ptr, i32, i32, [1024 x i8], [32768 x i8] }
%struct.Fragment = type { i64, i64, i32, i64, i64, [1024 x i8], [1024 x i8] }

@.str.32 = private unnamed_addr constant [9 x i8] c"truncate\00", align 1
@.str.33 = private unnamed_addr constant [2 x i8] c"0\00", align 1

; Function Attrs: inlinehint nounwind uwtable
define internal i64 @ffurl_seek(ptr noundef %0, i64 noundef %1, i32 noundef %2) #6 {
  %4 = alloca ptr, align 8
  %5 = alloca i64, align 8
  %6 = alloca i32, align 4
  store ptr %0, ptr %4, align 8, !tbaa !134
  store i64 %1, ptr %5, align 8, !tbaa !78
  store i32 %2, ptr %6, align 4, !tbaa !28
  %7 = load ptr, ptr %4, align 8, !tbaa !134
  %8 = load i64, ptr %5, align 8, !tbaa !78
  %9 = load i32, ptr %6, align 4, !tbaa !28
  %10 = call i64 @ffurl_seek2(ptr noundef %7, i64 noundef %8, i32 noundef %9)
  ret i64 %10
}

; Function Attrs: nounwind uwtable
define internal i64 @ism_seek(ptr noundef %0, i64 noundef %1, i32 noundef %2) #0 {
  %4 = alloca i64, align 8
  %5 = alloca ptr, align 8
  %6 = alloca i64, align 8
  %7 = alloca i32, align 4
  %8 = alloca ptr, align 8
  %9 = alloca i32, align 4
  %10 = alloca i32, align 4
  %11 = alloca ptr, align 8
  %12 = alloca i32, align 4
  %13 = alloca ptr, align 8
  store ptr %0, ptr %5, align 8, !tbaa !56
  store i64 %1, ptr %6, align 8, !tbaa !78
  store i32 %2, ptr %7, align 4, !tbaa !28
  call void @llvm.lifetime.start.p0(i64 8, ptr %8) #9
  %14 = load ptr, ptr %5, align 8, !tbaa !56
  store ptr %14, ptr %8, align 8, !tbaa !35
  call void @llvm.lifetime.start.p0(i64 4, ptr %9) #9
  %15 = load i32, ptr %7, align 4, !tbaa !28
  %16 = icmp ne i32 %15, 0
  br i1 %16, label %17, label %18

17:                                               ; preds = %3
  store i64 -38, ptr %4, align 8
  store i32 1, ptr %10, align 4
  br label %192

18:                                               ; preds = %3
  %19 = load ptr, ptr %8, align 8, !tbaa !35
  %20 = getelementptr inbounds nuw %struct.OutputStream, ptr %19, i32 0, i32 3
  %21 = load ptr, ptr %20, align 8, !tbaa !106
  %22 = icmp ne ptr %21, null
  br i1 %22, label %23, label %37

23:                                               ; preds = %18
  %24 = load ptr, ptr %8, align 8, !tbaa !35
  %25 = getelementptr inbounds nuw %struct.OutputStream, ptr %24, i32 0, i32 1
  %26 = call i32 @ffurl_closep(ptr noundef %25)
  %27 = load ptr, ptr %8, align 8, !tbaa !35
  %28 = getelementptr inbounds nuw %struct.OutputStream, ptr %27, i32 0, i32 2
  %29 = call i32 @ffurl_closep(ptr noundef %28)
  %30 = load ptr, ptr %8, align 8, !tbaa !35
  %31 = getelementptr inbounds nuw %struct.OutputStream, ptr %30, i32 0, i32 3
  %32 = load ptr, ptr %31, align 8, !tbaa !106
  %33 = load ptr, ptr %8, align 8, !tbaa !35
  %34 = getelementptr inbounds nuw %struct.OutputStream, ptr %33, i32 0, i32 1
  store ptr %32, ptr %34, align 8, !tbaa !102
  %35 = load ptr, ptr %8, align 8, !tbaa !35
  %36 = getelementptr inbounds nuw %struct.OutputStream, ptr %35, i32 0, i32 3
  store ptr null, ptr %36, align 8, !tbaa !106
  br label %37

37:                                               ; preds = %23, %18
  %38 = load i64, ptr %6, align 8, !tbaa !78
  %39 = load ptr, ptr %8, align 8, !tbaa !35
  %40 = getelementptr inbounds nuw %struct.OutputStream, ptr %39, i32 0, i32 6
  %41 = load i64, ptr %40, align 8, !tbaa !107
  %42 = icmp sge i64 %38, %41
  br i1 %42, label %43, label %63

43:                                               ; preds = %37
  %44 = load ptr, ptr %8, align 8, !tbaa !35
  %45 = getelementptr inbounds nuw %struct.OutputStream, ptr %44, i32 0, i32 1
  %46 = load ptr, ptr %45, align 8, !tbaa !102
  %47 = icmp ne ptr %46, null
  br i1 %47, label %48, label %58

48:                                               ; preds = %43
  %49 = load ptr, ptr %8, align 8, !tbaa !35
  %50 = getelementptr inbounds nuw %struct.OutputStream, ptr %49, i32 0, i32 1
  %51 = load ptr, ptr %50, align 8, !tbaa !102
  %52 = load i64, ptr %6, align 8, !tbaa !78
  %53 = load ptr, ptr %8, align 8, !tbaa !35
  %54 = getelementptr inbounds nuw %struct.OutputStream, ptr %53, i32 0, i32 6
  %55 = load i64, ptr %54, align 8, !tbaa !107
  %56 = sub nsw i64 %52, %55
  %57 = call i64 @ffurl_seek(ptr noundef %51, i64 noundef %56, i32 noundef 0)
  br label %58

58:                                               ; preds = %48, %43
  %59 = load i64, ptr %6, align 8, !tbaa !78
  %60 = load ptr, ptr %8, align 8, !tbaa !35
  %61 = getelementptr inbounds nuw %struct.OutputStream, ptr %60, i32 0, i32 5
  store i64 %59, ptr %61, align 8, !tbaa !104
  %62 = load i64, ptr %6, align 8, !tbaa !78
  store i64 %62, ptr %4, align 8
  store i32 1, ptr %10, align 4
  br label %192

63:                                               ; preds = %37
  %64 = load ptr, ptr %8, align 8, !tbaa !35
  %65 = getelementptr inbounds nuw %struct.OutputStream, ptr %64, i32 0, i32 9
  %66 = load i32, ptr %65, align 8, !tbaa !97
  %67 = sub nsw i32 %66, 1
  store i32 %67, ptr %9, align 4, !tbaa !28
  br label %68

68:                                               ; preds = %188, %63
  %69 = load i32, ptr %9, align 4, !tbaa !28
  %70 = icmp sge i32 %69, 0
  br i1 %70, label %71, label %191

71:                                               ; preds = %68
  call void @llvm.lifetime.start.p0(i64 8, ptr %11) #9
  %72 = load ptr, ptr %8, align 8, !tbaa !35
  %73 = getelementptr inbounds nuw %struct.OutputStream, ptr %72, i32 0, i32 12
  %74 = load ptr, ptr %73, align 8, !tbaa !98
  %75 = load i32, ptr %9, align 4, !tbaa !28
  %76 = sext i32 %75 to i64
  %77 = getelementptr inbounds ptr, ptr %74, i64 %76
  %78 = load ptr, ptr %77, align 8, !tbaa !108
  store ptr %78, ptr %11, align 8, !tbaa !108
  %79 = load i64, ptr %6, align 8, !tbaa !78
  %80 = load ptr, ptr %11, align 8, !tbaa !108
  %81 = getelementptr inbounds nuw %struct.Fragment, ptr %80, i32 0, i32 3
  %82 = load i64, ptr %81, align 8, !tbaa !110
  %83 = icmp sge i64 %79, %82
  br i1 %83, label %84, label %184

84:                                               ; preds = %71
  %85 = load i64, ptr %6, align 8, !tbaa !78
  %86 = load ptr, ptr %11, align 8, !tbaa !108
  %87 = getelementptr inbounds nuw %struct.Fragment, ptr %86, i32 0, i32 3
  %88 = load i64, ptr %87, align 8, !tbaa !110
  %89 = load ptr, ptr %11, align 8, !tbaa !108
  %90 = getelementptr inbounds nuw %struct.Fragment, ptr %89, i32 0, i32 4
  %91 = load i64, ptr %90, align 8, !tbaa !112
  %92 = add nsw i64 %88, %91
  %93 = icmp slt i64 %85, %92
  br i1 %93, label %94, label %184

94:                                               ; preds = %84
  call void @llvm.lifetime.start.p0(i64 4, ptr %12) #9
  call void @llvm.lifetime.start.p0(i64 8, ptr %13) #9
  store ptr null, ptr %13, align 8, !tbaa !36
  %95 = load ptr, ptr %8, align 8, !tbaa !35
  %96 = getelementptr inbounds nuw %struct.OutputStream, ptr %95, i32 0, i32 1
  %97 = load ptr, ptr %96, align 8, !tbaa !102
  %98 = load ptr, ptr %8, align 8, !tbaa !35
  %99 = getelementptr inbounds nuw %struct.OutputStream, ptr %98, i32 0, i32 3
  store ptr %97, ptr %99, align 8, !tbaa !106
  %100 = call i32 @av_dict_set(ptr noundef %13, ptr noundef @.str.32, ptr noundef @.str.33, i32 noundef 0)
  %101 = load ptr, ptr %8, align 8, !tbaa !35
  %102 = getelementptr inbounds nuw %struct.OutputStream, ptr %101, i32 0, i32 1
  %103 = load ptr, ptr %11, align 8, !tbaa !108
  %104 = getelementptr inbounds nuw %struct.Fragment, ptr %103, i32 0, i32 5
  %105 = getelementptr inbounds [1024 x i8], ptr %104, i64 0, i64 0
  %106 = load ptr, ptr %8, align 8, !tbaa !35
  %107 = getelementptr inbounds nuw %struct.OutputStream, ptr %106, i32 0, i32 0
  %108 = load ptr, ptr %107, align 8, !tbaa !50
  %109 = getelementptr inbounds nuw %struct.AVFormatContext, ptr %108, i32 0, i32 33
  %110 = load ptr, ptr %8, align 8, !tbaa !35
  %111 = getelementptr inbounds nuw %struct.OutputStream, ptr %110, i32 0, i32 0
  %112 = load ptr, ptr %111, align 8, !tbaa !50
  %113 = getelementptr inbounds nuw %struct.AVFormatContext, ptr %112, i32 0, i32 59
  %114 = load ptr, ptr %113, align 8, !tbaa !113
  %115 = load ptr, ptr %8, align 8, !tbaa !35
  %116 = getelementptr inbounds nuw %struct.OutputStream, ptr %115, i32 0, i32 0
  %117 = load ptr, ptr %116, align 8, !tbaa !50
  %118 = getelementptr inbounds nuw %struct.AVFormatContext, ptr %117, i32 0, i32 60
  %119 = load ptr, ptr %118, align 8, !tbaa !114
  %120 = call i32 @ffurl_open_whitelist(ptr noundef %102, ptr noundef %105, i32 noundef 2, ptr noundef %109, ptr noundef %13, ptr noundef %114, ptr noundef %119, ptr noundef null)
  store i32 %120, ptr %12, align 4, !tbaa !28
  call void @av_dict_free(ptr noundef %13)
  %121 = load i32, ptr %12, align 4, !tbaa !28
  %122 = icmp slt i32 %121, 0
  br i1 %122, label %123, label %133

123:                                              ; preds = %94
  %124 = load ptr, ptr %8, align 8, !tbaa !35
  %125 = getelementptr inbounds nuw %struct.OutputStream, ptr %124, i32 0, i32 3
  %126 = load ptr, ptr %125, align 8, !tbaa !106
  %127 = load ptr, ptr %8, align 8, !tbaa !35
  %128 = getelementptr inbounds nuw %struct.OutputStream, ptr %127, i32 0, i32 1
  store ptr %126, ptr %128, align 8, !tbaa !102
  %129 = load ptr, ptr %8, align 8, !tbaa !35
  %130 = getelementptr inbounds nuw %struct.OutputStream, ptr %129, i32 0, i32 3
  store ptr null, ptr %130, align 8, !tbaa !106
  %131 = load i32, ptr %12, align 4, !tbaa !28
  %132 = sext i32 %131 to i64
  store i64 %132, ptr %4, align 8
  store i32 1, ptr %10, align 4
  br label %183

133:                                              ; preds = %94
  %134 = call i32 @av_dict_set(ptr noundef %13, ptr noundef @.str.32, ptr noundef @.str.33, i32 noundef 0)
  %135 = load ptr, ptr %8, align 8, !tbaa !35
  %136 = getelementptr inbounds nuw %struct.OutputStream, ptr %135, i32 0, i32 2
  %137 = load ptr, ptr %11, align 8, !tbaa !108
  %138 = getelementptr inbounds nuw %struct.Fragment, ptr %137, i32 0, i32 6
  %139 = getelementptr inbounds [1024 x i8], ptr %138, i64 0, i64 0
  %140 = load ptr, ptr %8, align 8, !tbaa !35
  %141 = getelementptr inbounds nuw %struct.OutputStream, ptr %140, i32 0, i32 0
  %142 = load ptr, ptr %141, align 8, !tbaa !50
  %143 = getelementptr inbounds nuw %struct.AVFormatContext, ptr %142, i32 0, i32 33
  %144 = load ptr, ptr %8, align 8, !tbaa !35
  %145 = getelementptr inbounds nuw %struct.OutputStream, ptr %144, i32 0, i32 0
  %146 = load ptr, ptr %145, align 8, !tbaa !50
  %147 = getelementptr inbounds nuw %struct.AVFormatContext, ptr %146, i32 0, i32 59
  %148 = load ptr, ptr %147, align 8, !tbaa !113
  %149 = load ptr, ptr %8, align 8, !tbaa !35
  %150 = getelementptr inbounds nuw %struct.OutputStream, ptr %149, i32 0, i32 0
  %151 = load ptr, ptr %150, align 8, !tbaa !50
  %152 = getelementptr inbounds nuw %struct.AVFormatContext, ptr %151, i32 0, i32 60
  %153 = load ptr, ptr %152, align 8, !tbaa !114
  %154 = call i32 @ffurl_open_whitelist(ptr noundef %136, ptr noundef %139, i32 noundef 2, ptr noundef %143, ptr noundef %13, ptr noundef %148, ptr noundef %153, ptr noundef null)
  call void @av_dict_free(ptr noundef %13)
  %155 = load ptr, ptr %8, align 8, !tbaa !35
  %156 = getelementptr inbounds nuw %struct.OutputStream, ptr %155, i32 0, i32 1
  %157 = load ptr, ptr %156, align 8, !tbaa !102
  %158 = load i64, ptr %6, align 8, !tbaa !78
  %159 = load ptr, ptr %11, align 8, !tbaa !108
  %160 = getelementptr inbounds nuw %struct.Fragment, ptr %159, i32 0, i32 3
  %161 = load i64, ptr %160, align 8, !tbaa !110
  %162 = sub nsw i64 %158, %161
  %163 = call i64 @ffurl_seek(ptr noundef %157, i64 noundef %162, i32 noundef 0)
  %164 = load ptr, ptr %8, align 8, !tbaa !35
  %165 = getelementptr inbounds nuw %struct.OutputStream, ptr %164, i32 0, i32 2
  %166 = load ptr, ptr %165, align 8, !tbaa !103
  %167 = icmp ne ptr %166, null
  br i1 %167, label %168, label %178

168:                                              ; preds = %133
  %169 = load ptr, ptr %8, align 8, !tbaa !35
  %170 = getelementptr inbounds nuw %struct.OutputStream, ptr %169, i32 0, i32 2
  %171 = load ptr, ptr %170, align 8, !tbaa !103
  %172 = load i64, ptr %6, align 8, !tbaa !78
  %173 = load ptr, ptr %11, align 8, !tbaa !108
  %174 = getelementptr inbounds nuw %struct.Fragment, ptr %173, i32 0, i32 3
  %175 = load i64, ptr %174, align 8, !tbaa !110
  %176 = sub nsw i64 %172, %175
  %177 = call i64 @ffurl_seek(ptr noundef %171, i64 noundef %176, i32 noundef 0)
  br label %178

178:                                              ; preds = %168, %133
  %179 = load i64, ptr %6, align 8, !tbaa !78
  %180 = load ptr, ptr %8, align 8, !tbaa !35
  %181 = getelementptr inbounds nuw %struct.OutputStream, ptr %180, i32 0, i32 5
  store i64 %179, ptr %181, align 8, !tbaa !104
  %182 = load i64, ptr %6, align 8, !tbaa !78
  store i64 %182, ptr %4, align 8
  store i32 1, ptr %10, align 4
  br label %183

183:                                              ; preds = %178, %123
  call void @llvm.lifetime.end.p0(i64 8, ptr %13) #9
  call void @llvm.lifetime.end.p0(i64 4, ptr %12) #9
  br label %185

184:                                              ; preds = %84, %71
  store i32 0, ptr %10, align 4
  br label %185

185:                                              ; preds = %184, %183
  call void @llvm.lifetime.end.p0(i64 8, ptr %11) #9
  %186 = load i32, ptr %10, align 4
  switch i32 %186, label %192 [
    i32 0, label %187
  ]

187:                                              ; preds = %185
  br label %188

188:                                              ; preds = %187
  %189 = load i32, ptr %9, align 4, !tbaa !28
  %190 = add nsw i32 %189, -1
  store i32 %190, ptr %9, align 4, !tbaa !28
  br label %68, !llvm.loop !115

191:                                              ; preds = %68
  store i64 -5, ptr %4, align 8
  store i32 1, ptr %10, align 4
  br label %192

192:                                              ; preds = %191, %185, %58, %17
  call void @llvm.lifetime.end.p0(i64 4, ptr %9) #9
  call void @llvm.lifetime.end.p0(i64 8, ptr %8) #9
  %193 = load i64, ptr %4, align 8
  ret i64 %193
}