; Function Attrs: nounwind uwtable
define internal i64 @ism_seek(ptr noundef %0, i64 noundef %1, i32 noundef %2) #0 {
  %4 = alloca ptr, align 8
  %.not = icmp eq i32 %2, 0
  br i1 %.not, label %5, label %.loopexit

5:                                                ; preds = %3
  %6 = getelementptr inbounds nuw i8, ptr %0, i64 24
  %7 = load ptr, ptr %6, align 8, !tbaa !98
  %.not65 = icmp eq ptr %7, null
  br i1 %.not65, label %14, label %8

8:                                                ; preds = %5
  %9 = getelementptr inbounds nuw i8, ptr %0, i64 8
  %10 = tail call i32 @ffurl_closep(ptr noundef nonnull %9) #8
  %11 = getelementptr inbounds nuw i8, ptr %0, i64 16
  %12 = tail call i32 @ffurl_closep(ptr noundef nonnull %11) #8
  %13 = load ptr, ptr %6, align 8, !tbaa !98
  store ptr %13, ptr %9, align 8, !tbaa !94
  store ptr null, ptr %6, align 8, !tbaa !98
  br label %14

14:                                               ; preds = %8, %5
  %15 = getelementptr inbounds nuw i8, ptr %0, i64 48
  %16 = load i64, ptr %15, align 8, !tbaa !99
  %.not66 = icmp slt i64 %1, %16
  br i1 %.not66, label %25, label %17

17:                                               ; preds = %14
  %18 = getelementptr inbounds nuw i8, ptr %0, i64 8
  %19 = load ptr, ptr %18, align 8, !tbaa !94
  %.not69 = icmp eq ptr %19, null
  br i1 %.not69, label %23, label %20

20:                                               ; preds = %17
  %21 = sub nsw i64 %1, %16
  %22 = tail call i64 @ffurl_seek2(ptr noundef nonnull %19, i64 noundef %21, i32 noundef 0) #8
  br label %23

23:                                               ; preds = %20, %17
  %24 = getelementptr inbounds nuw i8, ptr %0, i64 40
  store i64 %1, ptr %24, align 8, !tbaa !96
  br label %.loopexit

25:                                               ; preds = %14
  %26 = getelementptr inbounds nuw i8, ptr %0, i64 72
  %27 = load i32, ptr %26, align 8, !tbaa !90
  %28 = icmp sgt i32 %27, 0
  br i1 %28, label %.lr.ph, label %.loopexit

.lr.ph:                                           ; preds = %25
  %29 = getelementptr inbounds nuw i8, ptr %0, i64 88
  %30 = load ptr, ptr %29, align 8, !tbaa !91
  %31 = zext nneg i32 %27 to i64
  br label %32

32:                                               ; preds = %.lr.ph, %81
  %indvars.iv = phi i64 [ %31, %.lr.ph ], [ %indvars.iv.next, %81 ]
  %indvars.iv.next = add nsw i64 %indvars.iv, -1
  %33 = getelementptr inbounds nuw ptr, ptr %30, i64 %indvars.iv.next
  %34 = load ptr, ptr %33, align 8, !tbaa !100
  %35 = getelementptr inbounds nuw i8, ptr %34, i64 24
  %36 = load i64, ptr %35, align 8, !tbaa !102
  %.not67 = icmp slt i64 %1, %36
  br i1 %.not67, label %81, label %37

37:                                               ; preds = %32
  %38 = getelementptr inbounds nuw i8, ptr %34, i64 32
  %39 = load i64, ptr %38, align 8, !tbaa !104
  %40 = add nsw i64 %39, %36
  %41 = icmp slt i64 %1, %40
  br i1 %41, label %42, label %81

42:                                               ; preds = %37
  %43 = getelementptr inbounds nuw i8, ptr %34, i64 24
  call void @llvm.lifetime.start.p0(i64 8, ptr nonnull %4) #8
  store ptr null, ptr %4, align 8, !tbaa !30
  %44 = getelementptr inbounds nuw i8, ptr %0, i64 8
  %45 = load ptr, ptr %44, align 8, !tbaa !94
  store ptr %45, ptr %6, align 8, !tbaa !98
  %46 = call i32 @av_dict_set(ptr noundef nonnull %4, ptr noundef nonnull @.str.32, ptr noundef nonnull @.str.33, i32 noundef 0) #8
  %47 = getelementptr inbounds nuw i8, ptr %34, i64 40
  %48 = load ptr, ptr %0, align 8, !tbaa !44
  %49 = getelementptr inbounds nuw i8, ptr %48, i64 216
  %50 = getelementptr inbounds nuw i8, ptr %48, i64 352
  %51 = load ptr, ptr %50, align 8, !tbaa !105
  %52 = getelementptr inbounds nuw i8, ptr %48, i64 360
  %53 = load ptr, ptr %52, align 8, !tbaa !106
  %54 = call i32 @ffurl_open_whitelist(ptr noundef nonnull %44, ptr noundef nonnull %47, i32 noundef 2, ptr noundef nonnull %49, ptr noundef nonnull %4, ptr noundef %51, ptr noundef %53, ptr noundef null) #8
  call void @av_dict_free(ptr noundef nonnull %4) #8
  %55 = icmp slt i32 %54, 0
  br i1 %55, label %56, label %59

56:                                               ; preds = %42
  %57 = load ptr, ptr %6, align 8, !tbaa !98
  store ptr %57, ptr %44, align 8, !tbaa !94
  store ptr null, ptr %6, align 8, !tbaa !98
  %58 = sext i32 %54 to i64
  br label %.thread

59:                                               ; preds = %42
  %60 = call i32 @av_dict_set(ptr noundef nonnull %4, ptr noundef nonnull @.str.32, ptr noundef nonnull @.str.33, i32 noundef 0) #8
  %61 = getelementptr inbounds nuw i8, ptr %0, i64 16
  %62 = getelementptr inbounds nuw i8, ptr %34, i64 1064
  %63 = load ptr, ptr %0, align 8, !tbaa !44
  %64 = getelementptr inbounds nuw i8, ptr %63, i64 216
  %65 = getelementptr inbounds nuw i8, ptr %63, i64 352
  %66 = load ptr, ptr %65, align 8, !tbaa !105
  %67 = getelementptr inbounds nuw i8, ptr %63, i64 360
  %68 = load ptr, ptr %67, align 8, !tbaa !106
  %69 = call i32 @ffurl_open_whitelist(ptr noundef nonnull %61, ptr noundef nonnull %62, i32 noundef 2, ptr noundef nonnull %64, ptr noundef nonnull %4, ptr noundef %66, ptr noundef %68, ptr noundef null) #8
  call void @av_dict_free(ptr noundef nonnull %4) #8
  %70 = load ptr, ptr %44, align 8, !tbaa !94
  %71 = load i64, ptr %43, align 8, !tbaa !102
  %72 = sub nsw i64 %1, %71
  %73 = call i64 @ffurl_seek2(ptr noundef %70, i64 noundef %72, i32 noundef 0) #8
  %74 = load ptr, ptr %61, align 8, !tbaa !95
  %.not68 = icmp eq ptr %74, null
  br i1 %.not68, label %79, label %75

75:                                               ; preds = %59
  %76 = load i64, ptr %43, align 8, !tbaa !102
  %77 = sub nsw i64 %1, %76
  %78 = call i64 @ffurl_seek2(ptr noundef nonnull %74, i64 noundef %77, i32 noundef 0) #8
  br label %79

79:                                               ; preds = %75, %59
  %80 = getelementptr inbounds nuw i8, ptr %0, i64 40
  store i64 %1, ptr %80, align 8, !tbaa !96
  br label %.thread

.thread:                                          ; preds = %56, %79
  %.2 = phi i64 [ %58, %56 ], [ %1, %79 ]
  call void @llvm.lifetime.end.p0(i64 8, ptr nonnull %4) #8
  br label %.loopexit

81:                                               ; preds = %32, %37
  %82 = icmp samesign ugt i64 %indvars.iv, 1
  br i1 %82, label %32, label %.loopexit, !llvm.loop !107

.loopexit:                                        ; preds = %81, %25, %.thread, %3, %23
  %.0 = phi i64 [ %1, %23 ], [ -38, %3 ], [ %.2, %.thread ], [ -5, %25 ], [ -5, %81 ]
  ret i64 %.0
}